; Function Attrs: nounwind uwtable
define dso_local void @int_add(ptr dead_on_unwind noalias writable writeonly sret(%struct.Int) align 8 captures(none) initializes((0, 20)) %0, ptr noundef readonly byval(%struct.Int) align 8 captures(none) %1, ptr noundef readonly byval(%struct.Int) align 8 captures(none) %2) local_unnamed_addr #0 {
  %4 = load i64, ptr %1, align 8
  %5 = getelementptr inbounds nuw i8, ptr %1, i64 8
  %6 = load i64, ptr %5, align 8
  %7 = load i64, ptr %2, align 8
  %8 = getelementptr inbounds nuw i8, ptr %2, i64 8
  %9 = load i64, ptr %8, align 8
  %10 = add i64 %9, %6
  %11 = add i64 %7, %4
  %12 = icmp ult i64 %10, %6
  %13 = zext i1 %12 to i64
  %spec.select.i = add i64 %11, %13
  %14 = getelementptr inbounds nuw i8, ptr %1, i64 16
  %15 = load i32, ptr %14, align 8
  %16 = tail call { i64, i64 } @i128_extend(i64 %spec.select.i, i64 %10, i32 noundef %15)
  %17 = extractvalue { i64, i64 } %16, 0
  store i64 %17, ptr %0, align 8
  %18 = getelementptr inbounds nuw i8, ptr %0, i64 8
  %19 = extractvalue { i64, i64 } %16, 1
  store i64 %19, ptr %18, align 8
  %20 = getelementptr inbounds nuw i8, ptr %0, i64 16
  store i32 %15, ptr %20, align 8
  ret void
}